; Function Attrs: norecurse nounwind uwtable
define internal void @_ZN3gmx10PropagatorILNS_16IntegrationStageE5EE3runILNS_24NumVelocityScalingValuesE0ELNS_31ParrinelloRahmanVelocityScalingE0ELS4_0ELNS_24NumPositionScalingValuesE1EEEvv.omp_outlined(ptr noalias nocapture noundef readonly %0, ptr noalias nocapture readnone %1, ptr nocapture noundef nonnull readonly align 4 dereferenceable(4) %2, ptr nocapture noundef nonnull readonly align 4 dereferenceable(4) %3, ptr nocapture readnone %4, i64 noundef %5, ptr nocapture noundef nonnull readonly align 8 dereferenceable(8) %6) #7 personality ptr @__gxx_personality_v0 {
  %8 = alloca i32, align 4
  %9 = alloca i32, align 4
  %10 = alloca i32, align 4
  %11 = alloca i32, align 4
  %12 = alloca i32, align 4
  %13 = alloca i32, align 4
  %.sroa.0.0.extract.trunc = trunc i64 %5 to i32
  %14 = bitcast i32 %.sroa.0.0.extract.trunc to float
  %15 = load i32, ptr %2, align 4
  %16 = icmp sgt i32 %15, 0
  br i1 %16, label %17, label %49

17:                                               ; preds = %7
  %18 = add nsw i32 %15, -1
  store i32 0, ptr %8, align 4
  store i32 %18, ptr %9, align 4
  store i32 1, ptr %10, align 4
  store i32 0, ptr %11, align 4
  %19 = load i32, ptr %0, align 4
  call void @__kmpc_for_static_init_4(ptr nonnull @1, i32 %19, i32 34, ptr nonnull %11, ptr nonnull %8, ptr nonnull %9, ptr nonnull %10, i32 1, i32 1)
  %20 = load i32, ptr %9, align 4
  %21 = call i32 @llvm.smin.i32(i32 %20, i32 %18)
  store i32 %21, ptr %9, align 4
  %22 = load i32, ptr %8, align 4
  %.not22 = icmp sgt i32 %22, %21
  br i1 %.not22, label %._crit_edge26, label %.lr.ph25

.lr.ph25:                                         ; preds = %17, %._crit_edge
  %.023 = phi i32 [ %47, %._crit_edge ], [ %22, %17 ]
  %23 = load i32, ptr %2, align 4
  %24 = load i32, ptr %3, align 4
  invoke void @_Z18getThreadAtomRangeiiiPiS_(i32 noundef %23, i32 noundef %.023, i32 noundef %24, ptr noundef nonnull %12, ptr noundef nonnull %13)
          to label %25 unwind label %38

25:                                               ; preds = %.lr.ph25
  %26 = load i32, ptr %12, align 4
  %27 = load i32, ptr %13, align 4
  %28 = icmp slt i32 %26, %27
  br i1 %28, label %.lr.ph.preheader, label %._crit_edge

.lr.ph.preheader:                                 ; preds = %25
  %29 = sext i32 %26 to i64
  br label %.lr.ph

.lr.ph:                                           ; preds = %.lr.ph.preheader, %_ZN3gmxL14scalePositionsILNS_24NumPositionScalingValuesE1EEEvifPA3_f.exit
  %indvars.iv = phi i64 [ %29, %.lr.ph.preheader ], [ %indvars.iv.next, %_ZN3gmxL14scalePositionsILNS_24NumPositionScalingValuesE1EEEvifPA3_f.exit ]
  %30 = load ptr, ptr %6, align 8
  br label %31

31:                                               ; preds = %31, %.lr.ph
  %indvars.iv.i = phi i64 [ 0, %.lr.ph ], [ %indvars.iv.next.i, %31 ]
  %32 = getelementptr inbounds [3 x float], ptr %30, i64 %indvars.iv, i64 %indvars.iv.i
  %33 = load float, ptr %32, align 4, !alias.scope !881
  %34 = fmul float %33, %14
  store float %34, ptr %32, align 4, !alias.scope !881
  %indvars.iv.next.i = add nuw nsw i64 %indvars.iv.i, 1
  %exitcond.not.i = icmp eq i64 %indvars.iv.next.i, 3
  br i1 %exitcond.not.i, label %_ZN3gmxL14scalePositionsILNS_24NumPositionScalingValuesE1EEEvifPA3_f.exit, label %31, !llvm.loop !884

_ZN3gmxL14scalePositionsILNS_24NumPositionScalingValuesE1EEEvifPA3_f.exit: ; preds = %31
  %indvars.iv.next = add nsw i64 %indvars.iv, 1
  %35 = load i32, ptr %13, align 4
  %36 = sext i32 %35 to i64
  %37 = icmp slt i64 %indvars.iv.next, %36
  br i1 %37, label %.lr.ph, label %._crit_edge, !llvm.loop !885

38:                                               ; preds = %.lr.ph25
  %39 = landingpad { ptr, i32 }
          catch ptr @_ZTISt9exception
          catch ptr null
  %40 = extractvalue { ptr, i32 } %39, 0
  %41 = extractvalue { ptr, i32 } %39, 1
  %42 = call i32 @llvm.eh.typeid.for(ptr nonnull @_ZTISt9exception) #8
  %43 = icmp eq i32 %41, %42
  br i1 %43, label %44, label %53

44:                                               ; preds = %38
  %45 = call ptr @__cxa_begin_catch(ptr %40) #8
  invoke void @_ZN3gmx28processExceptionAsFatalErrorERKSt9exception(ptr noundef nonnull align 8 dereferenceable(8) %45) #22
          to label %46 unwind label %50

46:                                               ; preds = %44
  unreachable

._crit_edge:                                      ; preds = %_ZN3gmxL14scalePositionsILNS_24NumPositionScalingValuesE1EEEvifPA3_f.exit, %25
  %47 = add nsw i32 %.023, 1
  %48 = load i32, ptr %9, align 4
  %.not.not = icmp slt i32 %.023, %48
  br i1 %.not.not, label %.lr.ph25, label %._crit_edge26

._crit_edge26:                                    ; preds = %._crit_edge, %17
  call void @__kmpc_for_static_fini(ptr nonnull @1, i32 %19)
  br label %49

49:                                               ; preds = %._crit_edge26, %7
  ret void

50:                                               ; preds = %44
  %51 = landingpad { ptr, i32 }
          catch ptr null
  %52 = extractvalue { ptr, i32 } %51, 0
  call void @__clang_call_terminate(ptr %52) #23
  unreachable

53:                                               ; preds = %38
  call void @__clang_call_terminate(ptr %40) #23
  unreachable
}